target datalayout = "e-m:e-p270:32:32-p271:32:32-p272:64:64-i64:64-i128:128-f80:128-n8:16:32:64-S128"
target triple = "x86_64-pc-linux-gnu"

%struct.ggml_cplan = type { i64, ptr, i32, ptr, ptr, ptr }
%struct.ggml_backend_plan_cpu = type { %struct.ggml_cplan, %struct.ggml_cgraph }
%struct.ggml_cgraph = type { i32, i32, i32, ptr, ptr, ptr, ptr, %struct.ggml_hash_set, i32 }
%struct.ggml_hash_set = type { i64, ptr, ptr }

; Function Attrs: mustprogress nounwind uwtable
define internal void @_ZL32ggml_backend_cpu_graph_plan_freeP12ggml_backendPv(ptr noundef %0, ptr noundef %1) #4 {
  %3 = alloca ptr, align 8
  %4 = alloca ptr, align 8
  %5 = alloca ptr, align 8
  store ptr %0, ptr %3, align 8, !tbaa !61
  store ptr %1, ptr %4, align 8, !tbaa !5
  call void @llvm.lifetime.start.p0(i64 8, ptr %5) #1
  %6 = load ptr, ptr %4, align 8, !tbaa !5
  store ptr %6, ptr %5, align 8, !tbaa !65
  %7 = load ptr, ptr %5, align 8, !tbaa !65
  %8 = getelementptr inbounds nuw %struct.ggml_backend_plan_cpu, ptr %7, i32 0, i32 0
  %9 = getelementptr inbounds nuw %struct.ggml_cplan, ptr %8, i32 0, i32 1
  %10 = load ptr, ptr %9, align 8, !tbaa !82
  %11 = icmp eq ptr %10, null
  br i1 %11, label %13, label %12

12:                                               ; preds = %2
  call void @_ZdaPv(ptr noundef %10) #18
  br label %13

13:                                               ; preds = %12, %2
  %14 = load ptr, ptr %5, align 8, !tbaa !65
  %15 = icmp eq ptr %14, null
  br i1 %15, label %17, label %16

16:                                               ; preds = %13
  call void @_ZdlPvm(ptr noundef %14, i64 noundef 128) #18
  br label %17

17:                                               ; preds = %16, %13
  call void @llvm.lifetime.end.p0(i64 8, ptr %5) #1
  ret void
}