; Function Attrs: mustprogress nounwind uwtable
define internal void @_ZL32ggml_backend_cpu_graph_plan_freeP12ggml_backendPv(ptr readnone captures(none) %0, ptr noundef %1) #4 {
  %3 = getelementptr inbounds nuw i8, ptr %1, i64 8
  %4 = load ptr, ptr %3, align 8, !tbaa !49
  %5 = icmp eq ptr %4, null
  br i1 %5, label %7, label %6

6:                                                ; preds = %2
  tail call void @_ZdaPv(ptr noundef nonnull %4) #28
  br label %7

7:                                                ; preds = %6, %2
  tail call void @_ZdlPvm(ptr noundef nonnull %1, i64 noundef 128) #28
  ret void
}